target datalayout = "e-m:e-p270:32:32-p271:32:32-p272:64:64-i64:64-i128:128-f80:128-n8:16:32:64-S128"
target triple = "x86_64-unknown-linux-gnu"

%"class.Imath_3_2::Vec3" = type { float, float, float }
%"class.Imf_3_2::RgbaOutputFile::ToYca" = type { %"class.std::mutex", ptr, i8, i8, i8, i32, i32, i32, i32, i32, i32, %"class.Imath_3_2::Vec3", ptr, [27 x ptr], ptr, ptr, i64, i64, i32, i32 }
%"class.std::mutex" = type { %"class.std::__mutex_base" }
%"class.std::__mutex_base" = type { %union.pthread_mutex_t }
%union.pthread_mutex_t = type { %struct.__pthread_mutex_s }
%struct.__pthread_mutex_s = type { i32, i32, i32, i32, i32, i16, i16, %struct.__pthread_internal_list }
%struct.__pthread_internal_list = type { ptr, ptr }

; Function Attrs: mustprogress nounwind uwtable
define hidden void @_ZN7Imf_3_214RgbaOutputFile5ToYcaD2Ev(ptr noundef nonnull align 8 dereferenceable(352) %this) unnamed_addr #5 align 2 {
entry:
  %this.addr = alloca ptr, align 8
  store ptr %this, ptr %this.addr, align 8
  %this1 = load ptr, ptr %this.addr, align 8
  %_bufBase = getelementptr inbounds %"class.Imf_3_2::RgbaOutputFile::ToYca", ptr %this1, i32 0, i32 12
  %0 = load ptr, ptr %_bufBase, align 8
  %isnull = icmp eq ptr %0, null
  br i1 %isnull, label %delete.end, label %delete.notnull

delete.notnull:                                   ; preds = %entry
  call void @_ZdaPv(ptr noundef %0) #14
  br label %delete.end

delete.end:                                       ; preds = %delete.notnull, %entry
  %_tmpBuf = getelementptr inbounds %"class.Imf_3_2::RgbaOutputFile::ToYca", ptr %this1, i32 0, i32 14
  %1 = load ptr, ptr %_tmpBuf, align 8
  %isnull2 = icmp eq ptr %1, null
  br i1 %isnull2, label %delete.end4, label %delete.notnull3

delete.notnull3:                                  ; preds = %delete.end
  call void @_ZdaPv(ptr noundef %1) #14
  br label %delete.end4

delete.end4:                                      ; preds = %delete.notnull3, %delete.end
  ret void
}